target datalayout = "e-m:e-p270:32:32-p271:32:32-p272:64:64-i64:64-i128:128-f80:128-n8:16:32:64-S128"
target triple = "x86_64-unknown-linux-gnu"

%"class.QuantLib::GammaFunction" = type { i8 }
%"class.QuantLib::StudentDistribution" = type { i32 }

@_ZZNK8QuantLib19StudentDistributionclEdE1G = internal global %"class.QuantLib::GammaFunction" zeroinitializer, align 1

; Function Attrs: mustprogress uwtable
define noundef double @_ZNK8QuantLib19StudentDistributionclEd(ptr noundef nonnull align 4 dereferenceable(4) %this, double noundef %x) #0 align 2 {
entry:
  %this.addr = alloca ptr, align 8
  %x.addr = alloca double, align 8
  %g1 = alloca double, align 8
  %g2 = alloca double, align 8
  %power = alloca double, align 8
  store ptr %this, ptr %this.addr, align 8, !tbaa !3
  store double %x, ptr %x.addr, align 8, !tbaa !7
  %this1 = load ptr, ptr %this.addr, align 8
  call void @llvm.lifetime.start.p0(i64 8, ptr %g1) #13
  %n_ = getelementptr inbounds nuw %"class.QuantLib::StudentDistribution", ptr %this1, i32 0, i32 0
  %0 = load i32, ptr %n_, align 4, !tbaa !9
  %add = add nsw i32 %0, 1
  %conv = sitofp i32 %add to double
  %mul = fmul double 5.000000e-01, %conv
  %call = call noundef double @_ZNK8QuantLib13GammaFunction8logValueEd(ptr noundef nonnull align 1 dereferenceable(1) @_ZZNK8QuantLib19StudentDistributionclEdE1G, double noundef %mul)
  %call2 = call double @exp(double noundef %call) #13, !tbaa !12
  store double %call2, ptr %g1, align 8, !tbaa !7
  call void @llvm.lifetime.start.p0(i64 8, ptr %g2) #13
  %n_3 = getelementptr inbounds nuw %"class.QuantLib::StudentDistribution", ptr %this1, i32 0, i32 0
  %1 = load i32, ptr %n_3, align 4, !tbaa !9
  %conv4 = sitofp i32 %1 to double
  %mul5 = fmul double 5.000000e-01, %conv4
  %call6 = call noundef double @_ZNK8QuantLib13GammaFunction8logValueEd(ptr noundef nonnull align 1 dereferenceable(1) @_ZZNK8QuantLib19StudentDistributionclEdE1G, double noundef %mul5)
  %call7 = call double @exp(double noundef %call6) #13, !tbaa !12
  store double %call7, ptr %g2, align 8, !tbaa !7
  call void @llvm.lifetime.start.p0(i64 8, ptr %power) #13
  %2 = load double, ptr %x.addr, align 8, !tbaa !7
  %3 = load double, ptr %x.addr, align 8, !tbaa !7
  %mul8 = fmul double %2, %3
  %n_9 = getelementptr inbounds nuw %"class.QuantLib::StudentDistribution", ptr %this1, i32 0, i32 0
  %4 = load i32, ptr %n_9, align 4, !tbaa !9
  %conv10 = sitofp i32 %4 to double
  %div = fdiv double %mul8, %conv10
  %add11 = fadd double 1.000000e+00, %div
  %n_12 = getelementptr inbounds nuw %"class.QuantLib::StudentDistribution", ptr %this1, i32 0, i32 0
  %5 = load i32, ptr %n_12, align 4, !tbaa !9
  %add13 = add nsw i32 %5, 1
  %conv14 = sitofp i32 %add13 to double
  %mul15 = fmul double 5.000000e-01, %conv14
  %call16 = call double @pow(double noundef %add11, double noundef %mul15) #13, !tbaa !12
  store double %call16, ptr %power, align 8, !tbaa !7
  %6 = load double, ptr %g1, align 8, !tbaa !7
  %7 = load double, ptr %g2, align 8, !tbaa !7
  %8 = load double, ptr %power, align 8, !tbaa !7
  %mul17 = fmul double %7, %8
  %n_18 = getelementptr inbounds nuw %"class.QuantLib::StudentDistribution", ptr %this1, i32 0, i32 0
  %9 = load i32, ptr %n_18, align 4, !tbaa !9
  %conv19 = sitofp i32 %9 to double
  %mul20 = fmul double 0x400921FB54442D18, %conv19
  %call21 = call double @sqrt(double noundef %mul20) #13, !tbaa !12
  %mul22 = fmul double %mul17, %call21
  %div23 = fdiv double %6, %mul22
  call void @llvm.lifetime.end.p0(i64 8, ptr %power) #13
  call void @llvm.lifetime.end.p0(i64 8, ptr %g2) #13
  call void @llvm.lifetime.end.p0(i64 8, ptr %g1) #13
  ret double %div23
}