; Function Attrs: mustprogress uwtable
define noundef double @_ZNK8QuantLib19StudentDistributionclEd(ptr nocapture noundef nonnull readonly align 4 dereferenceable(4) %this, double noundef %x) local_unnamed_addr #0 align 2 {
entry:
  %0 = load i32, ptr %this, align 4, !tbaa !3
  %add = add nsw i32 %0, 1
  %conv = sitofp i32 %add to double
  %mul = fmul double %conv, 5.000000e-01
  %call = tail call noundef double @_ZNK8QuantLib13GammaFunction8logValueEd(ptr noundef nonnull align 1 dereferenceable(1) @_ZZNK8QuantLib19StudentDistributionclEdE1G, double noundef %mul)
  %call2 = tail call double @exp(double noundef %call) #16, !tbaa !8
  %1 = load i32, ptr %this, align 4, !tbaa !3
  %conv4 = sitofp i32 %1 to double
  %mul5 = fmul double %conv4, 5.000000e-01
  %call6 = tail call noundef double @_ZNK8QuantLib13GammaFunction8logValueEd(ptr noundef nonnull align 1 dereferenceable(1) @_ZZNK8QuantLib19StudentDistributionclEdE1G, double noundef %mul5)
  %call7 = tail call double @exp(double noundef %call6) #16, !tbaa !8
  %mul8 = fmul double %x, %x
  %2 = load i32, ptr %this, align 4, !tbaa !3
  %conv10 = sitofp i32 %2 to double
  %div = fdiv double %mul8, %conv10
  %add11 = fadd double %div, 1.000000e+00
  %add13 = add nsw i32 %2, 1
  %conv14 = sitofp i32 %add13 to double
  %mul15 = fmul double %conv14, 5.000000e-01
  %call16 = tail call double @pow(double noundef %add11, double noundef %mul15) #16, !tbaa !8
  %mul17 = fmul double %call7, %call16
  %3 = load i32, ptr %this, align 4, !tbaa !3
  %conv19 = sitofp i32 %3 to double
  %mul20 = fmul double %conv19, 0x400921FB54442D18
  %call21 = tail call double @sqrt(double noundef %mul20) #16, !tbaa !8
  %mul22 = fmul double %mul17, %call21
  %div23 = fdiv double %call2, %mul22
  ret double %div23
}